target datalayout = "e-m:e-p270:32:32-p271:32:32-p272:64:64-i64:64-i128:128-f80:128-n8:16:32:64-S128"
target triple = "x86_64-pc-linux-gnu"

%class.elapsedTimer = type <{ i64, i64, i8, [7 x i8] }>
%class.PhaseOutput = type <{ %class.Phase, %class.CodeBuffer, i32, [4 x i8], %class.ExceptionHandlerTable, %class.ImplicitExceptionTable, %class.C2CodeStubList, ptr, ptr, ptr, i32, i8, [3 x i8], i32, %class.CodeOffsets, i32, ptr, i32, i32, %class.ConstantTable, %class.BufferSizingData, ptr, i32, [4 x i8] }>
%class.Phase = type { i32, ptr }
%class.CodeBuffer = type { ptr, %class.CodeSection, %class.CodeSection, %class.CodeSection, ptr, ptr, ptr, i32, ptr, %class.OopRecorder, ptr, ptr, ptr, ptr, ptr, i8, i32 }
%class.CodeSection = type { ptr, ptr, ptr, ptr, ptr, ptr, ptr, ptr, i8, i8, i32, i8, ptr }
%class.OopRecorder = type { %class.ValueRecorder, %class.ValueRecorder.0, ptr }
%class.ValueRecorder = type <{ ptr, ptr, ptr, ptr, i8, [7 x i8] }>
%class.ValueRecorder.0 = type <{ ptr, ptr, ptr, ptr, i8, [7 x i8] }>
%class.ExceptionHandlerTable = type <{ ptr, i32, i32, %class.ReallocMark, [7 x i8] }>
%class.ReallocMark = type { i8 }
%class.ImplicitExceptionTable = type <{ i32, i32, ptr, %class.ReallocMark, [7 x i8] }>
%class.C2CodeStubList = type { %class.GrowableArray }
%class.GrowableArray = type { %class.GrowableArrayWithAllocator, %class.GrowableArrayMetadata }
%class.GrowableArrayWithAllocator = type { %class.GrowableArrayView }
%class.GrowableArrayView = type { %class.GrowableArrayBase, ptr }
%class.GrowableArrayBase = type { i32, i32 }
%class.GrowableArrayMetadata = type { i64 }
%class.CodeOffsets = type { [8 x i32] }
%class.ConstantTable = type <{ %class.GrowableArray.2, i32, i32, i32, [4 x i8] }>
%class.GrowableArray.2 = type { %class.GrowableArrayWithAllocator.3, %class.GrowableArrayMetadata }
%class.GrowableArrayWithAllocator.3 = type { %class.GrowableArrayView.4 }
%class.GrowableArrayView.4 = type { %class.GrowableArrayBase, ptr }
%class.BufferSizingData = type { i32, i32, i32, i32 }
%class.Compile = type <{ %class.Phase, i32, %class.Options, [4 x i8], ptr, i32, [4 x i8], ptr, ptr, ptr, ptr, ptr, i32, i32, i32, [4 x i8], i64, i8, i8, [2 x i8], i32, i8, i8, i8, i8, i8, i8, i8, i8, i8, [3 x i8], i32, i8, [3 x i8], [30 x i32], i8, [3 x i8], i32, i8, i8, i8, i8, i8, i8, i8, i8, i8, i8, i8, i8, i8, [3 x i8], i32, i32, [4 x i8], %class.Arena, ptr, ptr, ptr, ptr, %class.CHeapStringHolder, ptr, %class.GrowableArray.5, %class.GrowableArray.8, %class.GrowableArray.11, %class.GrowableArray.8, %class.GrowableArray.8, %class.GrowableArray.8, %class.GrowableArray.14, %class.GrowableArray.17, ptr, i32, i32, %class.VectorSet, %class.Arena, %class.Arena, ptr, ptr, ptr, ptr, ptr, ptr, ptr, ptr, ptr, %class.Arena, ptr, ptr, %class.CloneMap, i64, ptr, ptr, ptr, i32, i32, [64 x %"struct.Compile::AliasCacheEntry"], ptr, ptr, ptr, ptr, %class.GrowableArray.5, %class.GrowableArray.5, %class.GrowableArray.5, %class.GrowableArray.5, i32, i32, i8, [7 x i8], ptr, ptr, i32, [4 x i8], ptr, ptr, ptr, i32, i32, ptr, ptr, %class.RegMask, ptr, ptr, i32, [4 x i8], ptr, %class.TimeInstant, i32, [4 x i8] }>
%class.Options = type { i8, i8, i8, i8, i8, i8, i8, i8 }
%class.CHeapStringHolder = type { ptr }
%class.GrowableArray.11 = type { %class.GrowableArrayWithAllocator.12, %class.GrowableArrayMetadata }
%class.GrowableArrayWithAllocator.12 = type { %class.GrowableArrayView.13 }
%class.GrowableArrayView.13 = type { %class.GrowableArrayBase, ptr }
%class.GrowableArray.8 = type { %class.GrowableArrayWithAllocator.9, %class.GrowableArrayMetadata }
%class.GrowableArrayWithAllocator.9 = type { %class.GrowableArrayView.10 }
%class.GrowableArrayView.10 = type { %class.GrowableArrayBase, ptr }
%class.GrowableArray.14 = type { %class.GrowableArrayWithAllocator.15, %class.GrowableArrayMetadata }
%class.GrowableArrayWithAllocator.15 = type { %class.GrowableArrayView.16 }
%class.GrowableArrayView.16 = type { %class.GrowableArrayBase, ptr }
%class.GrowableArray.17 = type { %class.GrowableArrayWithAllocator.18, %class.GrowableArrayMetadata }
%class.GrowableArrayWithAllocator.18 = type { %class.GrowableArrayView.19 }
%class.GrowableArrayView.19 = type { %class.GrowableArrayBase, ptr }
%class.VectorSet = type { i32, ptr, i32, ptr }
%class.Arena = type { i8, i8, i64, ptr, ptr, ptr, ptr }
%class.CloneMap = type <{ i8, [7 x i8], ptr, i32, [4 x i8] }>
%"struct.Compile::AliasCacheEntry" = type { ptr, i32 }
%class.GrowableArray.5 = type { %class.GrowableArrayWithAllocator.6, %class.GrowableArrayMetadata }
%class.GrowableArrayWithAllocator.6 = type { %class.GrowableArrayView.7 }
%class.GrowableArrayView.7 = type { %class.GrowableArrayBase, ptr }
%class.RegMask = type { %union.anon, i32, i32 }
%union.anon = type { [11 x i64] }
%class.TimeInstant = type { %class.CompositeCounterRepresentation }
%class.CompositeCounterRepresentation = type { %class.Representation }
%class.Representation = type { %class.PairRep }
%class.PairRep = type { i64, i64 }
%class.ciFlags = type <{ i32, i8, i8, [2 x i8] }>
%class.ciMethod = type { %class.ciMetadata, %class.ciFlags, ptr, ptr, ptr, ptr, ptr, i32, i32, i32, i32, i32, i32, i32, i32, i32, i8, i8, i8, i8, i8, i8, i8, i8, i8, ptr, ptr, ptr, ptr, ptr }
%class.ciMetadata = type { %class.ciBaseObject.base, ptr }
%class.ciBaseObject.base = type <{ ptr, i32 }>
%"class.Compile::TracePhase" = type <{ %class.TraceTime, ptr, ptr, ptr, i8, [7 x i8] }>
%class.TraceTime = type { i8, i8, [6 x i8], %class.elapsedTimer, ptr, ptr, ptr }

@_ZN5Phase6timersE = external global [54 x %class.elapsedTimer], align 16
@.str.21 = private unnamed_addr constant [13 x i8] c"install_code\00", align 1

; Function Attrs: mustprogress nounwind uwtable
define linkonce_odr hidden void @_ZNK8ciMethod15check_is_loadedEv(ptr noundef nonnull align 8 dereferenceable(160) %0) #1 comdat align 2 {
  %2 = alloca ptr, align 8
  store ptr %0, ptr %2, align 8
  ret void
}

; Function Attrs: mustprogress nounwind uwtable
define linkonce_odr hidden noundef zeroext i1 @_ZNK7ciFlags9is_staticEv(ptr noundef nonnull align 4 dereferenceable(6) %0) #1 comdat align 2 {
  %2 = alloca ptr, align 8
  store ptr %0, ptr %2, align 8
  %3 = load ptr, ptr %2, align 8
  %4 = getelementptr inbounds %class.ciFlags, ptr %3, i32 0, i32 0
  %5 = load i32, ptr %4, align 4
  %6 = and i32 %5, 8
  %7 = icmp ne i32 %6, 0
  ret i1 %7
}

; Function Attrs: mustprogress nounwind uwtable
define linkonce_odr hidden i64 @_ZNK8ciMethod5flagsEv(ptr noundef nonnull align 8 dereferenceable(160) %0) #1 comdat align 2 {
  %2 = alloca %class.ciFlags, align 4
  %3 = alloca ptr, align 8
  store ptr %0, ptr %3, align 8
  %4 = load ptr, ptr %3, align 8
  call void @_ZNK8ciMethod15check_is_loadedEv(ptr noundef nonnull align 8 dereferenceable(160) %4)
  %5 = getelementptr inbounds %class.ciMethod, ptr %4, i32 0, i32 1
  call void @llvm.memcpy.p0.p0.i64(ptr align 4 %2, ptr align 8 %5, i64 8, i1 false)
  %6 = load i64, ptr %2, align 4
  ret i64 %6
}

; Function Attrs: mustprogress nounwind uwtable
define linkonce_odr hidden noundef ptr @_ZNK7Compile3logEv(ptr noundef nonnull align 8 dereferenceable(2316) %0) #1 comdat align 2 {
  %2 = alloca ptr, align 8
  store ptr %0, ptr %2, align 8
  %3 = load ptr, ptr %2, align 8
  %4 = getelementptr inbounds %class.Compile, ptr %3, i32 0, i32 59
  %5 = load ptr, ptr %4, align 8
  ret ptr %5
}

; Function Attrs: mustprogress nounwind uwtable
define linkonce_odr hidden noundef zeroext i1 @_ZNK7Compile12has_monitorsEv(ptr noundef nonnull align 8 dereferenceable(2316) %0) #1 comdat align 2 {
  %2 = alloca ptr, align 8
  store ptr %0, ptr %2, align 8
  %3 = load ptr, ptr %2, align 8
  %4 = getelementptr inbounds %class.Compile, ptr %3, i32 0, i32 49
  %5 = load i8, ptr %4, align 1
  %6 = trunc i8 %5 to i1
  ret i1 %6
}

; Function Attrs: mustprogress nounwind uwtable
define linkonce_odr hidden noundef i32 @_ZNK7Compile15max_vector_sizeEv(ptr noundef nonnull align 8 dereferenceable(2316) %0) #1 comdat align 2 {
  %2 = alloca ptr, align 8
  store ptr %0, ptr %2, align 8
  %3 = load ptr, ptr %2, align 8
  %4 = getelementptr inbounds %class.Compile, ptr %3, i32 0, i32 31
  %5 = load i32, ptr %4, align 4
  ret i32 %5
}

; Function Attrs: mustprogress nounwind uwtable
define linkonce_odr hidden noundef ptr @_ZN11PhaseOutput9inc_tableEv(ptr noundef nonnull align 8 dereferenceable(700) %0) #1 comdat align 2 {
  %2 = alloca ptr, align 8
  store ptr %0, ptr %2, align 8
  %3 = load ptr, ptr %2, align 8
  %4 = getelementptr inbounds %class.PhaseOutput, ptr %3, i32 0, i32 5
  ret ptr %4
}

; Function Attrs: mustprogress nounwind uwtable
define linkonce_odr hidden noundef ptr @_ZN11PhaseOutput11oop_map_setEv(ptr noundef nonnull align 8 dereferenceable(700) %0) #1 comdat align 2 {
  %2 = alloca ptr, align 8
  store ptr %0, ptr %2, align 8
  %3 = load ptr, ptr %2, align 8
  %4 = getelementptr inbounds %class.PhaseOutput, ptr %3, i32 0, i32 7
  %5 = load ptr, ptr %4, align 8
  ret ptr %5
}

; Function Attrs: mustprogress nounwind uwtable
define hidden noundef i32 @_ZNK11PhaseOutput19frame_size_in_wordsEv(ptr noundef nonnull align 8 dereferenceable(700) %0) #1 align 2 {
  %2 = alloca ptr, align 8
  %3 = alloca i32, align 4
  %4 = alloca i32, align 4
  store ptr %0, ptr %2, align 8
  %5 = load ptr, ptr %2, align 8
  store i32 1, ptr %3, align 4
  %6 = getelementptr inbounds %class.PhaseOutput, ptr %5, i32 0, i32 13
  %7 = load i32, ptr %6, align 8
  %8 = ashr i32 %7, 1
  store i32 %8, ptr %4, align 4
  %9 = load i32, ptr %4, align 4
  ret i32 %9
}

; Function Attrs: mustprogress nounwind uwtable
define linkonce_odr hidden noundef ptr @_ZN11PhaseOutput11code_bufferEv(ptr noundef nonnull align 8 dereferenceable(700) %0) #1 comdat align 2 {
  %2 = alloca ptr, align 8
  store ptr %0, ptr %2, align 8
  %3 = load ptr, ptr %2, align 8
  %4 = getelementptr inbounds %class.PhaseOutput, ptr %3, i32 0, i32 1
  ret ptr %4
}

; Function Attrs: mustprogress nounwind uwtable
define linkonce_odr hidden noundef ptr @_ZNK7Compile3envEv(ptr noundef nonnull align 8 dereferenceable(2316) %0) #1 comdat align 2 {
  %2 = alloca ptr, align 8
  store ptr %0, ptr %2, align 8
  %3 = load ptr, ptr %2, align 8
  %4 = getelementptr inbounds %class.Compile, ptr %3, i32 0, i32 57
  %5 = load ptr, ptr %4, align 8
  ret ptr %5
}

; Function Attrs: mustprogress nounwind uwtable
define linkonce_odr hidden noundef zeroext i1 @_ZNK8ciMethod9is_staticEv(ptr noundef nonnull align 8 dereferenceable(160) %0) #1 comdat align 2 {
  %2 = alloca ptr, align 8
  %3 = alloca %class.ciFlags, align 4
  store ptr %0, ptr %2, align 8
  %4 = load ptr, ptr %2, align 8
  %5 = call i64 @_ZNK8ciMethod5flagsEv(ptr noundef nonnull align 8 dereferenceable(160) %4)
  store i64 %5, ptr %3, align 4
  %6 = call noundef zeroext i1 @_ZNK7ciFlags9is_staticEv(ptr noundef nonnull align 4 dereferenceable(6) %3)
  ret i1 %6
}

; Function Attrs: mustprogress nounwind uwtable
define linkonce_odr hidden void @_ZN11CodeOffsets9set_valueENS_7EntriesEi(ptr noundef nonnull align 4 dereferenceable(32) %0, i32 noundef %1, i32 noundef %2) #1 comdat align 2 {
  %4 = alloca ptr, align 8
  %5 = alloca i32, align 4
  %6 = alloca i32, align 4
  store ptr %0, ptr %4, align 8
  store i32 %1, ptr %5, align 4
  store i32 %2, ptr %6, align 4
  %7 = load ptr, ptr %4, align 8
  %8 = load i32, ptr %6, align 4
  %9 = getelementptr inbounds %class.CodeOffsets, ptr %7, i32 0, i32 0
  %10 = load i32, ptr %5, align 4
  %11 = zext i32 %10 to i64
  %12 = getelementptr inbounds [8 x i32], ptr %9, i64 0, i64 %11
  store i32 %8, ptr %12, align 4
  ret void
}

; Function Attrs: mustprogress nounwind uwtable
define linkonce_odr hidden noundef zeroext i1 @_ZNK7Compile18is_osr_compilationEv(ptr noundef nonnull align 8 dereferenceable(2316) %0) #1 comdat align 2 {
  %2 = alloca ptr, align 8
  store ptr %0, ptr %2, align 8
  %3 = load ptr, ptr %2, align 8
  %4 = getelementptr inbounds %class.Compile, ptr %3, i32 0, i32 5
  %5 = load i32, ptr %4, align 8
  %6 = icmp ne i32 %5, -1
  ret i1 %6
}

; Function Attrs: mustprogress nounwind uwtable
define hidden void @_ZN11PhaseOutput12install_codeEP8ciMethodiP16AbstractCompilerbb(ptr noundef nonnull align 8 dereferenceable(700) %0, ptr noundef %1, i32 noundef %2, ptr noundef %3, i1 noundef zeroext %4, i1 noundef zeroext %5) #1 align 2 {
  %7 = alloca ptr, align 8
  %8 = alloca ptr, align 8
  %9 = alloca i32, align 4
  %10 = alloca ptr, align 8
  %11 = alloca i8, align 1
  %12 = alloca i8, align 1
  %13 = alloca %"class.Compile::TracePhase", align 8
  store ptr %0, ptr %7, align 8
  store ptr %1, ptr %8, align 8
  store i32 %2, ptr %9, align 4
  store ptr %3, ptr %10, align 8
  %14 = zext i1 %4 to i8
  store i8 %14, ptr %11, align 1
  %15 = zext i1 %5 to i8
  store i8 %15, ptr %12, align 1
  %16 = load ptr, ptr %7, align 8
  call void @_ZN7Compile10TracePhaseC1EPKcP12elapsedTimer(ptr noundef nonnull align 8 dereferenceable(81) %13, ptr noundef @.str.21, ptr noundef getelementptr inbounds ([54 x %class.elapsedTimer], ptr @_ZN5Phase6timersE, i64 0, i64 51))
  %17 = getelementptr inbounds %class.Phase, ptr %16, i32 0, i32 1
  %18 = load ptr, ptr %17, align 8
  %19 = call noundef zeroext i1 @_ZNK7Compile18is_osr_compilationEv(ptr noundef nonnull align 8 dereferenceable(2316) %18)
  br i1 %19, label %20, label %25

20:                                               ; preds = %6
  %21 = getelementptr inbounds %class.PhaseOutput, ptr %16, i32 0, i32 14
  call void @_ZN11CodeOffsets9set_valueENS_7EntriesEi(ptr noundef nonnull align 4 dereferenceable(32) %21, i32 noundef 1, i32 noundef 0)
  %22 = getelementptr inbounds %class.PhaseOutput, ptr %16, i32 0, i32 14
  %23 = getelementptr inbounds %class.PhaseOutput, ptr %16, i32 0, i32 2
  %24 = load i32, ptr %23, align 8
  call void @_ZN11CodeOffsets9set_valueENS_7EntriesEi(ptr noundef nonnull align 4 dereferenceable(32) %22, i32 noundef 3, i32 noundef %24)
  br label %39

25:                                               ; preds = %6
  %26 = load ptr, ptr %8, align 8
  %27 = call noundef zeroext i1 @_ZNK8ciMethod9is_staticEv(ptr noundef nonnull align 8 dereferenceable(160) %26)
  br i1 %27, label %34, label %28

28:                                               ; preds = %25
  %29 = getelementptr inbounds %class.PhaseOutput, ptr %16, i32 0, i32 14
  %30 = getelementptr inbounds %class.PhaseOutput, ptr %16, i32 0, i32 2
  %31 = load i32, ptr %30, align 8
  %32 = call noundef i32 @_ZN14MacroAssembler13ic_check_sizeEv()
  %33 = sub nsw i32 %31, %32
  call void @_ZN11CodeOffsets9set_valueENS_7EntriesEi(ptr noundef nonnull align 4 dereferenceable(32) %29, i32 noundef 0, i32 noundef %33)
  br label %34

34:                                               ; preds = %28, %25
  %35 = getelementptr inbounds %class.PhaseOutput, ptr %16, i32 0, i32 14
  %36 = getelementptr inbounds %class.PhaseOutput, ptr %16, i32 0, i32 2
  %37 = load i32, ptr %36, align 8
  call void @_ZN11CodeOffsets9set_valueENS_7EntriesEi(ptr noundef nonnull align 4 dereferenceable(32) %35, i32 noundef 1, i32 noundef %37)
  %38 = getelementptr inbounds %class.PhaseOutput, ptr %16, i32 0, i32 14
  call void @_ZN11CodeOffsets9set_valueENS_7EntriesEi(ptr noundef nonnull align 4 dereferenceable(32) %38, i32 noundef 3, i32 noundef 0)
  br label %39

39:                                               ; preds = %34, %20
  %40 = getelementptr inbounds %class.Phase, ptr %16, i32 0, i32 1
  %41 = load ptr, ptr %40, align 8
  %42 = call noundef ptr @_ZNK7Compile3envEv(ptr noundef nonnull align 8 dereferenceable(2316) %41)
  %43 = load ptr, ptr %8, align 8
  %44 = load i32, ptr %9, align 4
  %45 = getelementptr inbounds %class.PhaseOutput, ptr %16, i32 0, i32 14
  %46 = getelementptr inbounds %class.PhaseOutput, ptr %16, i32 0, i32 18
  %47 = load i32, ptr %46, align 4
  %48 = call noundef ptr @_ZN11PhaseOutput11code_bufferEv(ptr noundef nonnull align 8 dereferenceable(700) %16)
  %49 = call noundef i32 @_ZNK11PhaseOutput19frame_size_in_wordsEv(ptr noundef nonnull align 8 dereferenceable(700) %16)
  %50 = call noundef ptr @_ZN11PhaseOutput11oop_map_setEv(ptr noundef nonnull align 8 dereferenceable(700) %16)
  %51 = getelementptr inbounds %class.PhaseOutput, ptr %16, i32 0, i32 4
  %52 = call noundef ptr @_ZN11PhaseOutput9inc_tableEv(ptr noundef nonnull align 8 dereferenceable(700) %16)
  %53 = load ptr, ptr %10, align 8
  %54 = load i8, ptr %11, align 1
  %55 = trunc i8 %54 to i1
  %56 = getelementptr inbounds %class.Phase, ptr %16, i32 0, i32 1
  %57 = load ptr, ptr %56, align 8
  %58 = call noundef i32 @_ZNK7Compile15max_vector_sizeEv(ptr noundef nonnull align 8 dereferenceable(2316) %57)
  %59 = call noundef zeroext i1 @_ZN13SharedRuntime14is_wide_vectorEi(i32 noundef %58)
  %60 = getelementptr inbounds %class.Phase, ptr %16, i32 0, i32 1
  %61 = load ptr, ptr %60, align 8
  %62 = call noundef zeroext i1 @_ZNK7Compile12has_monitorsEv(ptr noundef nonnull align 8 dereferenceable(2316) %61)
  call void @_ZN5ciEnv15register_methodEP8ciMethodiP11CodeOffsetsiP10CodeBufferiP9OopMapSetP21ExceptionHandlerTableP22ImplicitExceptionTableP16AbstractCompilerbbbi(ptr noundef nonnull align 8 dereferenceable(1265) %42, ptr noundef %43, i32 noundef %44, ptr noundef %45, i32 noundef %47, ptr noundef %48, i32 noundef %49, ptr noundef %50, ptr noundef %51, ptr noundef %52, ptr noundef %53, i1 noundef zeroext %55, i1 noundef zeroext %59, i1 noundef zeroext %62, i32 noundef 0)
  %63 = getelementptr inbounds %class.Phase, ptr %16, i32 0, i32 1
  %64 = load ptr, ptr %63, align 8
  %65 = call noundef ptr @_ZNK7Compile3logEv(ptr noundef nonnull align 8 dereferenceable(2316) %64)
  %66 = icmp ne ptr %65, null
  br i1 %66, label %67, label %71

67:                                               ; preds = %39
  %68 = getelementptr inbounds %class.Phase, ptr %16, i32 0, i32 1
  %69 = load ptr, ptr %68, align 8
  %70 = call noundef ptr @_ZNK7Compile3logEv(ptr noundef nonnull align 8 dereferenceable(2316) %69)
  call void @_ZN10CompileLog16code_cache_stateEv(ptr noundef nonnull align 8 dereferenceable(440) %70)
  br label %71

71:                                               ; preds = %67, %39
  call void @_ZN7Compile10TracePhaseD1Ev(ptr noundef nonnull align 8 dereferenceable(81) %13) #8
  ret void
}