; Function Attrs: mustprogress nounwind uwtable
define hidden void @_ZN11PhaseOutput12install_codeEP8ciMethodiP16AbstractCompilerbb(ptr noundef nonnull align 8 dereferenceable(700) %0, ptr noundef %1, i32 noundef %2, ptr noundef %3, i1 noundef zeroext %4, i1 zeroext %5) local_unnamed_addr #0 align 2 {
  %7 = alloca %"class.Compile::TracePhase", align 8
  call void @_ZN7Compile10TracePhaseC1EPKcP12elapsedTimer(ptr noundef nonnull align 8 dereferenceable(81) %7, ptr noundef nonnull @.str.21, ptr noundef nonnull getelementptr inbounds (i8, ptr @_ZN5Phase6timersE, i64 1224)) #14
  %8 = getelementptr inbounds i8, ptr %0, i64 8
  %9 = load ptr, ptr %8, align 8
  %10 = getelementptr inbounds i8, ptr %9, i64 40
  %11 = load i32, ptr %10, align 8
  %.not5 = icmp eq i32 %11, -1
  br i1 %.not5, label %16, label %12

12:                                               ; preds = %6
  %13 = getelementptr inbounds i8, ptr %0, i64 584
  store i32 0, ptr %13, align 8
  %14 = getelementptr inbounds i8, ptr %0, i64 464
  %15 = load i32, ptr %14, align 8
  br label %29

16:                                               ; preds = %6
  %17 = getelementptr inbounds i8, ptr %1, i64 24
  %.sroa.0.0.copyload.i.i = load i64, ptr %17, align 8
  %18 = and i64 %.sroa.0.0.copyload.i.i, 8
  %.not6 = icmp eq i64 %18, 0
  br i1 %.not6, label %19, label %25

19:                                               ; preds = %16
  %20 = getelementptr inbounds i8, ptr %0, i64 580
  %21 = getelementptr inbounds i8, ptr %0, i64 464
  %22 = load i32, ptr %21, align 8
  %23 = call noundef i32 @_ZN14MacroAssembler13ic_check_sizeEv() #14
  %24 = sub nsw i32 %22, %23
  store i32 %24, ptr %20, align 4
  %.pre.pre = load ptr, ptr %8, align 8
  br label %25

25:                                               ; preds = %19, %16
  %.pre = phi ptr [ %.pre.pre, %19 ], [ %9, %16 ]
  %26 = getelementptr inbounds i8, ptr %0, i64 464
  %27 = load i32, ptr %26, align 8
  %28 = getelementptr inbounds i8, ptr %0, i64 584
  store i32 %27, ptr %28, align 8
  br label %29

29:                                               ; preds = %25, %12
  %.sink = phi i32 [ 0, %25 ], [ %15, %12 ]
  %30 = phi ptr [ %.pre, %25 ], [ %9, %12 ]
  %31 = getelementptr inbounds i8, ptr %0, i64 592
  store i32 %.sink, ptr %31, align 8
  %32 = getelementptr inbounds i8, ptr %30, i64 352
  %33 = load ptr, ptr %32, align 8
  %34 = getelementptr inbounds i8, ptr %0, i64 580
  %35 = getelementptr inbounds i8, ptr %0, i64 628
  %36 = load i32, ptr %35, align 4
  %37 = getelementptr inbounds i8, ptr %0, i64 16
  %38 = getelementptr inbounds i8, ptr %0, i64 576
  %39 = load i32, ptr %38, align 8
  %40 = ashr i32 %39, 1
  %41 = getelementptr inbounds i8, ptr %0, i64 544
  %42 = load ptr, ptr %41, align 8
  %43 = getelementptr inbounds i8, ptr %0, i64 472
  %44 = getelementptr inbounds i8, ptr %0, i64 496
  %45 = getelementptr inbounds i8, ptr %30, i64 132
  %46 = load i32, ptr %45, align 4
  %47 = call noundef zeroext i1 @_ZN13SharedRuntime14is_wide_vectorEi(i32 noundef %46) #14
  %48 = load ptr, ptr %8, align 8
  %49 = getelementptr inbounds i8, ptr %48, i64 279
  %50 = load i8, ptr %49, align 1
  %51 = trunc i8 %50 to i1
  call void @_ZN5ciEnv15register_methodEP8ciMethodiP11CodeOffsetsiP10CodeBufferiP9OopMapSetP21ExceptionHandlerTableP22ImplicitExceptionTableP16AbstractCompilerbbbi(ptr noundef nonnull align 8 dereferenceable(1265) %33, ptr noundef %1, i32 noundef %2, ptr noundef nonnull %34, i32 noundef %36, ptr noundef nonnull %37, i32 noundef %40, ptr noundef %42, ptr noundef nonnull %43, ptr noundef nonnull %44, ptr noundef %3, i1 noundef zeroext %4, i1 noundef zeroext %47, i1 noundef zeroext %51, i32 noundef 0) #14
  %52 = load ptr, ptr %8, align 8
  %53 = getelementptr inbounds i8, ptr %52, i64 368
  %54 = load ptr, ptr %53, align 8
  %.not = icmp eq ptr %54, null
  br i1 %.not, label %56, label %55

55:                                               ; preds = %29
  call void @_ZN10CompileLog16code_cache_stateEv(ptr noundef nonnull align 8 dereferenceable(440) %54) #14
  br label %56

56:                                               ; preds = %55, %29
  call void @_ZN7Compile10TracePhaseD1Ev(ptr noundef nonnull align 8 dereferenceable(81) %7) #14
  ret void
}